Microchip MPLAB XC8 Compiler V1.38 ()

Linker command line:

-W-3 --edf=C:\Program Files (x86)\Microchip\xc8\v1.38\dat\en_msgs.txt -cs \
  -h+dist/default/production\Termo-DS18B20.production.sym \
  --cmf=dist/default/production\Termo-DS18B20.production.cmf -z -Q16F628A \
  -oC:\Users\Vadim\AppData\Local\Temp\s5ok.2 \
  -Mdist/default/production/Termo-DS18B20.production.map -E1 -ver=XC8 \
  -ASTACK=0120h-014fh -pstack=STACK -ACODE=00h-07FFh -ASTRCODE=00h-07FFh \
  -ASTRING=00h-0FFhx8 -ACONST=00h-0FFhx8 -AENTRY=00h-0FFhx8 \
  -ACOMMON=070h-07Fh -ABANK0=020h-06Fh -ABANK1=0A0h-0EFh \
  -ABANK2=0120h-014Fh -ARAM=020h-06Fh,0A0h-0EFh,0120h-014Fh \
  -AABS1=020h-07Fh,0A0h-0EFh,0120h-014Fh -ASFR0=00h-01Fh -ASFR1=080h-09Fh \
  -ASFR2=0100h-011Fh -ASFR3=0180h-01EFh \
  -preset_vec=00h,intentry=04h,init,end_init -ppowerup=CODE -pcinit=CODE \
  -pfunctab=CODE -ACONFIG=02007h-02007h -pconfig=CONFIG -DCONFIG=2 \
  -AIDLOC=02000h-02003h -pidloc=IDLOC -DIDLOC=2 -AEEDATA=00h-07Fh/02100h \
  -peeprom_data=EEDATA -DEEDATA=2 -DCODE=2 -DSTRCODE=2 -DSTRING=2 -DCONST=2 \
  -DENTRY=2 -k C:\Users\Vadim\AppData\Local\Temp\s5ok.obj \
  dist/default/production\Termo-DS18B20.production.obj 

Object code version is 3.11

Machine type is 16F628A



                Name                               Link     Load   Length Selector   Space Scale
C:\Users\Vadim\AppData\Local\Temp\s5ok.obj
                end_init                             10       10        1        8       0
                reset_vec                             0        0        1        0       0
                config                             2007     2007        1     400E       0
dist/default/production\Termo-DS18B20.production.obj
                cinit                                11       11       1C        8       0
                intentry                              4        4        C        8       0
                eeprom_data                           0     2100       60     4200       3
                swtext1                             611      611       21      C22       0
                text33                              66A      66A       1C      C64       0
                text32                              46B      46B       45        8       0
                text31                              6BC      6BC       19      C64       0
                text30                              51C      51C       31        8       0
                text29                              5A7      5A7       27        8       0
                text28                              54D      54D       30        8       0
                text27                              5CE      5CE       22        8       0
                text26                              15D      15D      102        8       0
                text25                              31D      31D       AB        8       0
                text24                              6A1      6A1       1B      C64       0
                text23                              64E      64E       1C      C64       0
                text22                              794      794        6      EFC       0
                text21                              786      786        8      EFC       0
                text20                              726      726       12      C64       0
                text19                              686      686       1B      C64       0
                text18                              4B0      4B0       38        8       0
                text17                              57D      57D       2A        8       0
                text16                              758      758        F      C64       0
                text15                              738      738       11      C64       0
                text14                              632      632       1C      C64       0
                text13                              767      767        E      C64       0
                text12                              4E8      4E8       34        8       0
                text11                              6D5      6D5       18      C64       0
                text10                              79A      79A        5      EFC       0
                text9                               701      701       13      C64       0
                text8                               5F0      5F0       21        8       0
                text7                               749      749        F      C64       0
                text6                               25F      25F       BE        8       0
                text5                               426      426       45        8       0
                text4                               78E      78E        6      EFC       0
                text3                               714      714       12      C64       0
                text2                               6ED      6ED       14      C64       0
                text1                               3C8      3C8       5E        8       0
                maintext                             2D       2D      130        8       0
                cstackBANK0                          20       20       24       20       1
                cstackCOMMON                         70       70        E       70       1
                cstackBANK1                          A0       A0       16       A0       1
                clrtext                             77E      77E        8      EFC       0
                dataBANK1                            B6       B6       11       A0       1
                bitbssBANK0                         300       60        2       20       1     8
                bssBANK0                             44       44       19       20       1
                nvBANK0                              5D       5D        3       20       1
                strings                             775      775        9      EEA       0

TOTAL           Name                               Link     Load   Length     Space
        CLASS   STACK          

        CLASS   CODE           
                end_init                             10       10        1         0
                cinit                                11       11       1C         0
                intentry                              4        4        C         0
                reset_vec                             0        0        1         0
                text33                              66A      66A       1C         0
                text32                              46B      46B       45         0
                text31                              6BC      6BC       19         0
                text30                              51C      51C       31         0
                text29                              5A7      5A7       27         0
                text28                              54D      54D       30         0
                text27                              5CE      5CE       22         0
                text26                              15D      15D      102         0
                text25                              31D      31D       AB         0
                text24                              6A1      6A1       1B         0
                text23                              64E      64E       1C         0
                text22                              794      794        6         0
                text21                              786      786        8         0
                text20                              726      726       12         0
                text19                              686      686       1B         0
                text18                              4B0      4B0       38         0
                text17                              57D      57D       2A         0
                text16                              758      758        F         0
                text15                              738      738       11         0
                text14                              632      632       1C         0
                text13                              767      767        E         0
                text12                              4E8      4E8       34         0
                text11                              6D5      6D5       18         0
                text10                              79A      79A        5         0
                text9                               701      701       13         0
                text8                               5F0      5F0       21         0
                text7                               749      749        F         0
                text6                               25F      25F       BE         0
                text5                               426      426       45         0
                text4                               78E      78E        6         0
                text3                               714      714       12         0
                text2                               6ED      6ED       14         0
                text1                               3C8      3C8       5E         0
                maintext                             2D       2D      130         0
                clrtext                             77E      77E        8         0

        CLASS   STRCODE        

        CLASS   STRING         
                strings                             775      775        9         0

        CLASS   CONST          
                swtext1                             611      611       21         0

        CLASS   ENTRY          

        CLASS   COMMON         
                cstackCOMMON                         70       70        E         1

        CLASS   BANK0          
                cstackBANK0                          20       20       24         1
                bitbssBANK0                         300       60        2         1
                bssBANK0                             44       44       19         1
                nvBANK0                              5D       5D        3         1

        CLASS   BANK1          
                cstackBANK1                          A0       A0       16         1
                dataBANK1                            B6       B6       11         1

        CLASS   BANK2          

        CLASS   RAM            

        CLASS   ABS1           
                abs_s1                               7E       7E        2         1

        CLASS   SFR0           

        CLASS   SFR1           

        CLASS   SFR2           

        CLASS   SFR3           

        CLASS   CONFIG         
                config                             2007     2007        1         0

        CLASS   IDLOC          

        CLASS   EEDATA         
                eeprom_data                           0     2100       60         3

        CLASS   BANK3          



SEGMENTS        Name                           Load    Length   Top    Selector   Space  Class     Delta

                reset_vec                      000000  000001  000001         0       0  CODE        2
                intentry                       000004  00060D  000611         8       0  CODE        2
                cstackBANK0                    000020  000041  000061        20       1  BANK0       1
                cstackCOMMON                   000070  00000E  00007E        70       1  COMMON      1
                cstackBANK1                    0000A0  000027  0000C7        A0       1  BANK1       1
                swtext1                        000611  000021  000632       C22       0  CONST       2
                text14                         000632  000143  000775       C64       0  CODE        2
                strings                        000775  000009  00077E       EEA       0  STRING      2
                clrtext                        00077E  000021  00079F       EFC       0  CODE        2
                config                         002007  000001  002008      400E       0  CONFIG      2
                eeprom_data                    002100  000060  002160      4200       3  EEDATA      2


UNUSED ADDRESS RANGES

        Name                Unused          Largest block    Delta
        BANK0            00061-0006F               F           1
        BANK1            000C7-000EF              29           1
        BANK2            00120-0014F              30           1
        CODE             00001-00003               3           2
                         0079F-007FF              61
        CONST            00001-00003               3           2
                         0079F-007FF              61
        EEDATA           02160-0217F              20           2
        ENTRY            00001-00003               3           2
                         0079F-007FF              61
        IDLOC            02000-02003               4           2
        RAM              00061-0006F               F           1
                         000C7-000EF              29
                         00120-0014F              30
        SFR0             00000-0001F              20           1
        SFR1             00080-0009F              20           1
        SFR2             00100-0011F              20           1
        SFR3             00180-001EF              70           1
        STACK            00120-0014F              30           1
        STRCODE          00001-00003               3           2
                         0079F-007FF              61
        STRING           00001-00003               3           2
                         0079F-007FF              61

                                  Symbol Table

?___awdiv                         cstackCOMMON 00076
?___wmul                          cstackCOMMON 00070
CellToInd@cell                    cstackBANK0  00036
EERD@EEDATA_BUP                   cstackBANK0  0002F
EERD@INTCON_BUP                   cstackBANK0  0002E
EERD@address                      cstackBANK0  0002D
EEWR@INTCON_BUP                   cstackBANK0  0002F
EEWR@address                      cstackBANK0  0002E
EEWR@data                         cstackBANK0  0002D
EditAddressMemory@CellIsEmpty     cstackBANK1  000AA
EditAddressMemory@CellsData       cstackBANK1  000A0
EditAddressMemory@ErrorShowed     cstackBANK1  000A8
EditAddressMemory@RereadCell      cstackBANK1  000A9
EditAddressMemory@cell            cstackBANK1  000AD
EditAddressMemory@i               cstackBANK1  000AB
EditAddressMemory@i_256           cstackBANK1  000AC
F@ButtonPressTimeIn1              bssBANK0     00052
F@ButtonPressTimeIn2              bssBANK0     00053
F@ButtonPressTimeOut              bssBANK0     00054
F@CurrentKeysState                cstackBANK0  0002C
F@DigitNumber                     bssBANK0     00055
F@KeyTimeCounter                  bssBANK0     00050
F@LastKeysState                   bssBANK0     00056
F@dig                             cstackBANK0  0002B
F@long_press                      bssBANK0     00057
FillArrayFromEEPROM@address_start cstackBANK0  00030
FillArrayFromEEPROM@container     cstackBANK0  00033
FillArrayFromEEPROM@i             cstackBANK0  00034
FillArrayFromEEPROM@quantity      cstackBANK0  00031
FindCell@CellIsEmpty              cstackBANK0  0003F
FindCell@CellsData                cstackBANK0  00036
FindCell@address                  cstackBANK0  00042
FindCell@addressNew               cstackBANK0  0003E
FindCell@addressStart             cstackBANK0  00040
FindCell@i                        cstackBANK0  00041
FindCell@previous                 cstackBANK0  00035
INIT@One                          cstackBANK0  00031
INIT@Zero                         cstackBANK0  0002F
INIT@b                            cstackBANK0  00030
INIT@line                         cstackBANK0  0002E
PL10                              text26       00257
PL12                              text12       00516
PL14                              text28       00573
PL16                              text28       00578
PL2                               maintext     0013C
PL4                               maintext     0014B
PL6                               text26       0024F
PL8                               maintext     00156
RX@One                            cstackBANK0  00032
RX@Zero                           cstackBANK0  0002F
RX@d                              cstackBANK0  00030
RX@i                              cstackBANK0  00031
RX@line                           cstackBANK0  0002E
ReadCell@CellsData                cstackBANK0  00035
ReadCell@cell                     cstackBANK0  00037
ReadCell@i                        cstackBANK0  00038
Run_getInit@line                  cstackBANK0  0002D
Run_getTemp@line                  cstackBANK0  0002D
TX@One                            cstackBANK0  00033
TX@Zero                           cstackBANK0  00031
TX@cmd                            cstackBANK0  0002F
TX@i                              cstackBANK0  00032
TX@line                           cstackBANK0  0002D
TX@temp                           cstackBANK0  00030
WriteArrayToEEPROM@address_start  cstackBANK0  00030
WriteArrayToEEPROM@container      cstackBANK0  00033
WriteArrayToEEPROM@i              cstackBANK0  00034
WriteArrayToEEPROM@quantity       cstackBANK0  00031
_Broadcasting                     bitbssBANK0  00300
_CMCON                            (abs)        0001F
_CellToInd                        text19       00686
_DS_Address                       dataBANK1    000BF
_DS_ReadData                      dataBANK1    000B6
_EEADR                            (abs)        0009B
_EECON1bits                       (abs)        0009C
_EECON2                           (abs)        0009D
_EEDATA                           (abs)        0009A
_EERD                             text16       00758
_EEWR                             text11       006D5
_EditAddressMemory                text6        0025F
_F                                text25       0031D
_FillArrayFromEEPROM              text15       00738
_FindCell                         text5        00426
_INIT                             text18       004B0
_INTCON                           (abs)        0000B
_INTCONbits                       (abs)        0000B
_KeyCode                          nvBANK0      0005F
_OPTION_REG                       (abs)        00081
_PORTA                            (abs)        00005
_PORTB                            (abs)        00006
_PortAData                        strings      0077B
_PowerBlocked                     bssBANK0     00058
_RA2                              (abs)        0002A
_RA5                              (abs)        0002D
_RX                               text17       0057D
_ReadCell                         text14       00632
_Reset_powerOnInterval            text4        0078E
_Run_getInit                      text3        00714
_Run_getTemp                      text2        006ED
_ShowError                        text13       00767
_T0IF                             (abs)        0005A
_T2CON                            (abs)        00012
_TMR0                             (abs)        00001
_TRISA                            (abs)        00085
_TRISA4                           (abs)        0042C
_TRISB                            (abs)        00086
_TX                               text12       004E8
_WriteArrayToEEPROM               text9        00701
__Babs1                           abs1         042C0
__Bbank0                          bank0        042C0
__Bbank1                          bank1        042C0
__Bbank2                          bank2        042C0
__Bbank3                          bank3        042C0
__BbitbssBANK0                    bitbssBANK0  042C0
__Bclrtext                        clrtext      042C0
__Bcode                           code         042C0
__Bcommon                         common       042C0
__BcstackBANK0                    cstackBANK0  042C0
__BcstackBANK1                    cstackBANK1  042C0
__BcstackCOMMON                   cstackCOMMON 042C0
__BdataBANK1                      dataBANK1    042C0
__Beeprom_data                    eeprom_data  02100
__Bmaintext                       maintext     042C0
__Bpa_nodes                       pa_nodes     042C0
__Bram                            ram          042C0
__Bsfr0                           sfr0         042C0
__Bsfr1                           sfr1         042C0
__Bsfr2                           sfr2         042C0
__Bsfr3                           sfr3         042C0
__Bstrings                        strings      042C0
__Btext                           text         042C0
__CFG_BOREN$OFF                   (abs)        00000
__CFG_CP$ON                       (abs)        00000
__CFG_CPD$OFF                     (abs)        00000
__CFG_FOSC$INTOSCIO               (abs)        00000
__CFG_LVP$OFF                     (abs)        00000
__CFG_MCLRE$OFF                   (abs)        00000
__CFG_PWRTE$ON                    (abs)        00000
__CFG_WDTE$OFF                    (abs)        00000
__Habs1                           abs1         000C0
__Hbank0                          bank0        000C0
__Hbank1                          bank1        000C0
__Hbank2                          bank2        000C0
__Hbank3                          bank3        000C0
__HbitbssBANK0                    bitbssBANK0  21600
__HbssBANK0                       bssBANK0     042C0
__Hcinit                          cinit        0002D
__Hclrtext                        clrtext      000C0
__Hcode                           code         000C0
__Hcommon                         common       000C0
__Hconfig                         config       02008
__HcstackBANK0                    cstackBANK0  000C0
__HcstackBANK1                    cstackBANK1  000C0
__HcstackCOMMON                   cstackCOMMON 000C0
__HdataBANK1                      dataBANK1    000C0
__Heeprom_data                    eeprom_data  00060
__Hend_init                       end_init     00011
__Hfunctab                        functab      00000
__HidataBANK1                     idataBANK1   042C0
__Hidloc                          idloc        00000
__Hinit                           init         00010
__Hintentry                       intentry     00010
__Hmaintext                       maintext     000C0
__HnvBANK0                        nvBANK0      042C0
__Hpa_nodes                       pa_nodes     000C0
__Hpowerup                        powerup      00000
__Hram                            ram          000C0
__Hreset_vec                      reset_vec    00001
__Hsfr0                           sfr0         000C0
__Hsfr1                           sfr1         000C0
__Hsfr2                           sfr2         000C0
__Hsfr3                           sfr3         000C0
__Hspace_0                        (abs)        21600
__Hspace_1                        (abs)        00302
__Hspace_2                        (abs)        00000
__Hspace_3                        (abs)        00060
__Hstack                          stack        00000
__Hstrings                        strings      000C0
__Htext                           text         000C0
__Labs1                           abs1         000C0
__Lbank0                          bank0        000C0
__Lbank1                          bank1        000C0
__Lbank2                          bank2        000C0
__Lbank3                          bank3        000C0
__LbitbssBANK0                    bitbssBANK0  21600
__LbssBANK0                       bssBANK0     042C0
__Lcinit                          cinit        00011
__Lclrtext                        clrtext      000C0
__Lcode                           code         000C0
__Lcommon                         common       000C0
__Lconfig                         config       02007
__LcstackBANK0                    cstackBANK0  000C0
__LcstackBANK1                    cstackBANK1  000C0
__LcstackCOMMON                   cstackCOMMON 000C0
__LdataBANK1                      dataBANK1    000C0
__Leeprom_data                    eeprom_data  00000
__Lend_init                       end_init     00010
__Lfunctab                        functab      00000
__LidataBANK1                     idataBANK1   042C0
__Lidloc                          idloc        00000
__Linit                           init         00010
__Lintentry                       intentry     00004
__Lmaintext                       maintext     000C0
__LnvBANK0                        nvBANK0      042C0
__Lpa_nodes                       pa_nodes     000C0
__Lpowerup                        powerup      00000
__Lram                            ram          000C0
__Lreset_vec                      reset_vec    00000
__Lsfr0                           sfr0         000C0
__Lsfr1                           sfr1         000C0
__Lsfr2                           sfr2         000C0
__Lsfr3                           sfr3         000C0
__Lspace_0                        (abs)        00000
__Lspace_1                        (abs)        00000
__Lspace_2                        (abs)        00000
__Lspace_3                        (abs)        00000
__Lstack                          stack        00000
__Lstrings                        strings      000C0
__Ltext                           text         000C0
__S0                              (abs)        02008
__S1                              (abs)        000C7
__S2                              (abs)        00000
__S3                              (abs)        02160
___awdiv                          text32       0046B
___awdiv@counter                  cstackCOMMON 0007A
___awdiv@dividend                 cstackCOMMON 00078
___awdiv@divisor                  cstackCOMMON 00076
___awdiv@quotient                 cstackCOMMON 0007C
___awdiv@sign                     cstackCOMMON 0007B
___int_sp                         stack        00000
___latbits                        (abs)        00000
___lbdiv                          text24       006A1
___lbdiv@counter                  cstackBANK0  0002F
___lbdiv@dividend                 cstackBANK0  0002E
___lbdiv@divisor                  cstackBANK0  0002D
___lbdiv@quotient                 cstackBANK0  00030
___lbmod                          text23       0064E
___lbmod@counter                  cstackBANK0  00030
___lbmod@dividend                 cstackBANK0  0002F
___lbmod@divisor                  cstackBANK0  0002D
___lbmod@rem                      cstackBANK0  00031
___sp                             stack        00000
___wmul                           text31       006BC
___wmul@multiplicand              cstackCOMMON 00072
___wmul@multiplier                cstackCOMMON 00070
___wmul@product                   cstackCOMMON 00074
__end_ofPL10                      text26       0025F
__end_ofPL12                      text12       0051C
__end_ofPL14                      text28       00578
__end_ofPL16                      text28       0057D
__end_ofPL2                       maintext     0014B
__end_ofPL4                       maintext     00156
__end_ofPL6                       text26       00257
__end_ofPL8                       maintext     0015D
__end_of_CellToInd                text19       006A1
__end_of_EERD                     text16       00767
__end_of_EEWR                     text11       006ED
__end_of_EditAddressMemory        text6        0031D
__end_of_F                        text25       003C8
__end_of_FillArrayFromEEPROM      text15       00749
__end_of_FindCell                 text5        0046B
__end_of_INIT                     text18       004E8
__end_of_PortAData                strings      0077E
__end_of_RX                       text17       005A7
__end_of_ReadCell                 text14       0064E
__end_of_Reset_powerOnInterval    text4        00794
__end_of_Run_getInit              text3        00726
__end_of_Run_getTemp              text2        00701
__end_of_ShowError                text13       00775
__end_of_TX                       text12       00516
__end_of_WriteArrayToEEPROM       text9        00714
__end_of___awdiv                  text32       004B0
__end_of___lbdiv                  text24       006BC
__end_of___lbmod                  text23       0066A
__end_of___wmul                   text31       006D5
__end_of__initialization          cinit        0002B
__end_of__stringtab               strings      0077B
__end_of_calc_crc                 text8        00611
__end_of_clrInd                   text22       0079A
__end_of_convDig                  text33       00686
__end_of_get_temp_Async           text26       0024F
__end_of_indData                  text1        00426
__end_of_main                     maintext     0013C
__end_of_refreshInd               text21       0078E
__end_of_setDigit                 text20       00738
__end_of_setPoint                 text7        00758
__end_of_waitInterrupt            text10       0079F
__end_ofi1_INIT                   text30       0054D
__end_ofi1_RX                     text29       005CE
__end_ofi1_TX                     text28       00573
__end_ofi1_calc_crc               text27       005F0
__initialization                  cinit        00011
__pbitbssBANK0                    bitbssBANK0  00300
__pbssBANK0                       bssBANK0     00044
__pcstackBANK0                    cstackBANK0  00020
__pcstackBANK1                    cstackBANK1  000A0
__pcstackCOMMON                   cstackCOMMON 00070
__pdataBANK1                      dataBANK1    000B6
__pidataBANK1                     idataBANK1   00000
__pintentry                       intentry     00004
__pmaintext                       maintext     0002D
__pnvBANK0                        nvBANK0      0005D
__pstrings                        strings      00775
__pswtext1                        swtext1      00611
__ptext1                          text1        003C8
__ptext10                         text10       0079A
__ptext11                         text11       006D5
__ptext12                         text12       004E8
__ptext13                         text13       00767
__ptext14                         text14       00632
__ptext15                         text15       00738
__ptext16                         text16       00758
__ptext17                         text17       0057D
__ptext18                         text18       004B0
__ptext19                         text19       00686
__ptext2                          text2        006ED
__ptext20                         text20       00726
__ptext21                         text21       00786
__ptext22                         text22       00794
__ptext23                         text23       0064E
__ptext24                         text24       006A1
__ptext25                         text25       0031D
__ptext26                         text26       0015D
__ptext27                         text27       005CE
__ptext28                         text28       0054D
__ptext29                         text29       005A7
__ptext3                          text3        00714
__ptext30                         text30       0051C
__ptext31                         text31       006BC
__ptext32                         text32       0046B
__ptext33                         text33       0066A
__ptext4                          text4        0078E
__ptext5                          text5        00426
__ptext6                          text6        0025F
__ptext7                          text7        00749
__ptext8                          text8        005F0
__ptext9                          text9        00701
__size_of_CellToInd               (abs)        00000
__size_of_EERD                    (abs)        00000
__size_of_EEWR                    (abs)        00000
__size_of_EditAddressMemory       (abs)        00000
__size_of_F                       (abs)        00000
__size_of_FillArrayFromEEPROM     (abs)        00000
__size_of_FindCell                (abs)        00000
__size_of_INIT                    (abs)        00000
__size_of_RX                      (abs)        00000
__size_of_ReadCell                (abs)        00000
__size_of_Reset_powerOnInterval   (abs)        00000
__size_of_Run_getInit             (abs)        00000
__size_of_Run_getTemp             (abs)        00000
__size_of_ShowError               (abs)        00000
__size_of_TX                      (abs)        00000
__size_of_WriteArrayToEEPROM      (abs)        00000
__size_of___awdiv                 (abs)        00000
__size_of___lbdiv                 (abs)        00000
__size_of___lbmod                 (abs)        00000
__size_of___wmul                  (abs)        00000
__size_of_calc_crc                (abs)        00000
__size_of_clrInd                  (abs)        00000
__size_of_convDig                 (abs)        00000
__size_of_get_temp_Async          (abs)        00000
__size_of_indData                 (abs)        00000
__size_of_main                    (abs)        00000
__size_of_refreshInd              (abs)        00000
__size_of_setDigit                (abs)        00000
__size_of_setPoint                (abs)        00000
__size_of_waitInterrupt           (abs)        00000
__size_ofi1_INIT                  (abs)        00000
__size_ofi1_RX                    (abs)        00000
__size_ofi1_TX                    (abs)        00000
__size_ofi1_calc_crc              (abs)        00000
__stringbase                      strings      0077A
__stringtab                       strings      00775
_calc_crc                         text8        005F0
_clrInd                           text22       00794
_convDig                          text33       0066A
_digitemp                         bssBANK0     00059
_digits                           bssBANK0     0004A
_digits_0                         bssBANK0     0004D
_endInterrupt                     bitbssBANK0  00301
_getTemp_flags                    bssBANK0     00044
_get_temp_Async                   text26       0015D
_indData                          text1        003C8
_main                             maintext     0002D
_main$272                         cstackBANK1  000B0
_powerOnInterval                  nvBANK0      0005D
_refreshInd                       text21       00786
_setDigit                         text20       00726
_setPoint                         text7        00749
_sign                             bssBANK0     0005A
_temp_drob                        bssBANK0     0005B
_temperature                      bssBANK0     0005C
_waitInterrupt                    text10       0079A
btemp                             (abs)        0007E
calc_crc@crc                      cstackBANK0  00032
calc_crc@dat                      cstackBANK0  0002E
calc_crc@fb                       cstackBANK0  0002F
calc_crc@i                        cstackBANK0  00031
calc_crc@len                      cstackBANK0  0002D
calc_crc@mas                      cstackBANK0  00030
clear_ram0                        clrtext      0077E
convDig@dig                       cstackCOMMON 00070
end_of_initialization             cinit        0002B
get_temp_Async@i                  cstackBANK0  00022
get_temp_Async@line               cstackBANK0  00025
get_temp_Async@temp1              cstackBANK0  00023
get_temp_Async@temp2              cstackBANK0  00024
i1INIT@One                        cstackCOMMON 00074
i1INIT@Zero                       cstackCOMMON 00072
i1INIT@b                          cstackCOMMON 00073
i1INIT@line                       cstackCOMMON 00071
i1RX@One                          cstackCOMMON 00075
i1RX@Zero                         cstackCOMMON 00072
i1RX@d                            cstackCOMMON 00073
i1RX@i                            cstackCOMMON 00074
i1RX@line                         cstackCOMMON 00071
i1TX@One                          cstackCOMMON 00076
i1TX@Zero                         cstackCOMMON 00074
i1TX@cmd                          cstackCOMMON 00072
i1TX@i                            cstackCOMMON 00075
i1TX@line                         cstackCOMMON 00070
i1TX@temp                         cstackCOMMON 00073
i1_INIT                           text30       0051C
i1_RX                             text29       005A7
i1_TX                             text28       0054D
i1_calc_crc                       text27       005CE
i1calc_crc@crc                    cstackCOMMON 00075
i1calc_crc@dat                    cstackCOMMON 00072
i1calc_crc@fb                     cstackCOMMON 00073
i1calc_crc@i                      cstackCOMMON 00074
i1calc_crc@len                    cstackCOMMON 00070
i1calc_crc@mas                    cstackCOMMON 00071
indData@cd                        cstackBANK0  0003B
indData@dN                        cstackBANK0  0003A
indData@isPoint                   cstackBANK0  00038
indData@v                         cstackBANK0  00039
indData@v_240                     cstackBANK0  00037
interrupt_function                intentry     00004
intlevel0                         functab      00000
intlevel1                         functab      00000
intlevel2                         functab      00000
intlevel3                         functab      00000
intlevel4                         functab      00000
intlevel5                         functab      00000
ltemp                             (abs)        0007E
ltemp0                            (abs)        0007E
ltemp1                            (abs)        00082
ltemp2                            (abs)        00086
ltemp3                            (abs)        00080
main@TheStart                     cstackBANK1  000B3
main@address                      cstackBANK1  000B4
main@cell                         cstackBANK1  000B2
main@line                         cstackBANK1  000B5
main@point_on_ind_delay           cstackBANK1  000AE
reset_vec                         reset_vec    00000
saved_w                           (abs)        0007E
setDigit@a                        cstackBANK0  00035
setDigit@data                     cstackBANK0  00032
setPoint@dignum                   cstackBANK0  0002E
setPoint@value                    cstackBANK0  0002D
stackhi                           (abs)        00000
stacklo                           (abs)        00000
start                             init         00010
start_initialization              cinit        00011
ttemp                             (abs)        0007E
ttemp0                            (abs)        0007E
ttemp1                            (abs)        00081
ttemp2                            (abs)        00084
ttemp3                            (abs)        00087
ttemp4                            (abs)        0007F
wtemp                             (abs)        0007E
wtemp0                            (abs)        0007E
wtemp1                            (abs)        00080
wtemp2                            (abs)        00082
wtemp3                            (abs)        00084
wtemp4                            (abs)        00086
wtemp5                            (abs)        00088
wtemp6                            (abs)        0007F


FUNCTION INFORMATION:

 *************** function _main *****************
 Defined at:
		line 718 in file "prog.c"
 Parameters:    Size  Location     Type
		None
 Auto vars:     Size  Location     Type
  point_on_ind    2   14[BANK1 ] unsigned int 
  line            1   21[BANK1 ] unsigned char 
  address         1   20[BANK1 ] unsigned char 
  TheStart        1   19[BANK1 ] unsigned char 
  cell            1   18[BANK1 ] unsigned char 
 Return value:  Size  Location     Type
                  1    wreg      void 
 Registers used:
		wreg, fsr0l, fsr0h, status,2, status,0, pclath, cstack
 Tracked objects:
		On entry : 
		On exit  : 
		Unchanged: 
 Data sizes:     COMMON   BANK0   BANK1   BANK2
      Params:         0       0       0       0
      Locals:         0       0       8       0
      Temps:          0       1       0       0
      Totals:         0       1       8       0
Total ram usage:        9 bytes
 Hardware stack levels required when called:    7
 This function calls:
		_CellToInd
		_EditAddressMemory
		_FillArrayFromEEPROM
		_FindCell
		_Reset_powerOnInterval
		_Run_getInit
		_Run_getTemp
		_ShowError
		_clrInd
		_indData
		_refreshInd
		_setDigit
		_setPoint
		_waitInterrupt
 This function is called by:
		Startup code after reset
 This function uses a non-reentrant model


 *************** function _indData *****************
 Defined at:
		line 535 in file "prog.c"
 Parameters:    Size  Location     Type
		None
 Auto vars:     Size  Location     Type
  v               1   23[BANK0 ] unsigned char 
  v               1   25[BANK0 ] unsigned char 
  cd              1   27[BANK0 ] unsigned char 
  dN              1   26[BANK0 ] unsigned char 
  isPoint         1   24[BANK0 ] unsigned char 
 Return value:  Size  Location     Type
                  1    wreg      void 
 Registers used:
		wreg, fsr0l, fsr0h, status,2, status,0, pclath, cstack
 Tracked objects:
		On entry : 
		On exit  : 
		Unchanged: 
 Data sizes:     COMMON   BANK0   BANK1   BANK2
      Params:         0       0       0       0
      Locals:         0       5       0       0
      Temps:          0       1       0       0
      Totals:         0       6       0       0
Total ram usage:        6 bytes
 Hardware stack levels used:    1
 Hardware stack levels required when called:    4
 This function calls:
		___lbdiv
		___lbmod
		_setDigit
		_setPoint
 This function is called by:
		_main
 This function uses a non-reentrant model


 *************** function _Run_getTemp *****************
 Defined at:
		line 682 in file "prog.c"
 Parameters:    Size  Location     Type
  line            1    wreg     unsigned char 
 Auto vars:     Size  Location     Type
  line            1   13[BANK0 ] unsigned char 
 Return value:  Size  Location     Type
                  1    wreg      void 
 Registers used:
		wreg, status,2, status,0
 Tracked objects:
		On entry : 
		On exit  : 
		Unchanged: 
 Data sizes:     COMMON   BANK0   BANK1   BANK2
      Params:         0       0       0       0
      Locals:         0       1       0       0
      Temps:          0       0       0       0
      Totals:         0       1       0       0
Total ram usage:        1 bytes
 Hardware stack levels used:    1
 Hardware stack levels required when called:    3
 This function calls:
		Nothing
 This function is called by:
		_main
 This function uses a non-reentrant model


 *************** function _Run_getInit *****************
 Defined at:
		line 700 in file "prog.c"
 Parameters:    Size  Location     Type
  line            1    wreg     unsigned char 
 Auto vars:     Size  Location     Type
  line            1   13[BANK0 ] unsigned char 
 Return value:  Size  Location     Type
                  1    wreg      void 
 Registers used:
		wreg, status,2, status,0
 Tracked objects:
		On entry : 
		On exit  : 
		Unchanged: 
 Data sizes:     COMMON   BANK0   BANK1   BANK2
      Params:         0       0       0       0
      Locals:         0       1       0       0
      Temps:          0       0       0       0
      Totals:         0       1       0       0
Total ram usage:        1 bytes
 Hardware stack levels used:    1
 Hardware stack levels required when called:    3
 This function calls:
		Nothing
 This function is called by:
		_main
 This function uses a non-reentrant model


 *************** function _Reset_powerOnInterval *****************
 Defined at:
		line 96 in file "prog.c"
 Parameters:    Size  Location     Type
		None
 Auto vars:     Size  Location     Type
		None
 Return value:  Size  Location     Type
                  1    wreg      void 
 Registers used:
		wreg
 Tracked objects:
		On entry : 
		On exit  : 
		Unchanged: 
 Data sizes:     COMMON   BANK0   BANK1   BANK2
      Params:         0       0       0       0
      Locals:         0       0       0       0
      Temps:          0       0       0       0
      Totals:         0       0       0       0
Total ram usage:        0 bytes
 Hardware stack levels used:    1
 Hardware stack levels required when called:    3
 This function calls:
		Nothing
 This function is called by:
		_main
 This function uses a non-reentrant model


 *************** function _FindCell *****************
 Defined at:
		line 394 in file "prog.c"
 Parameters:    Size  Location     Type
  addressStart    1    wreg     unsigned char 
  previous        1   21[BANK0 ] unsigned char 
 Auto vars:     Size  Location     Type
  addressStart    1   32[BANK0 ] unsigned char 
  i               1   33[BANK0 ] unsigned char 
  CellsData       8   22[BANK0 ] unsigned char [8]
  CellIsEmpty     1   31[BANK0 ] unsigned char 
  address         1   34[BANK0 ] unsigned char 
  addressNew      1   30[BANK0 ] unsigned char 
 Return value:  Size  Location     Type
                  1    wreg      unsigned char 
 Registers used:
		wreg, fsr0l, fsr0h, status,2, status,0, pclath, cstack
 Tracked objects:
		On entry : 
		On exit  : 
		Unchanged: 
 Data sizes:     COMMON   BANK0   BANK1   BANK2
      Params:         0       1       0       0
      Locals:         0      13       0       0
      Temps:          0       0       0       0
      Totals:         0      14       0       0
Total ram usage:       14 bytes
 Hardware stack levels used:    1
 Hardware stack levels required when called:    5
 This function calls:
		_FillArrayFromEEPROM
		_waitInterrupt
 This function is called by:
		_main
 This function uses a non-reentrant model


 *************** function _EditAddressMemory *****************
 Defined at:
		line 594 in file "prog.c"
 Parameters:    Size  Location     Type
		None
 Auto vars:     Size  Location     Type
  i               1   11[BANK1 ] unsigned char 
  i               1   12[BANK1 ] unsigned char 
  CellsData       8    0[BANK1 ] unsigned char [8]
  cell            1   13[BANK1 ] unsigned char 
  CellIsEmpty     1   10[BANK1 ] unsigned char 
  RereadCell      1    9[BANK1 ] unsigned char 
  ErrorShowed     1    8[BANK1 ] unsigned char 
 Return value:  Size  Location     Type
                  1    wreg      void 
 Registers used:
		wreg, fsr0l, fsr0h, status,2, status,0, pclath, cstack
 Tracked objects:
		On entry : 
		On exit  : 
		Unchanged: 
 Data sizes:     COMMON   BANK0   BANK1   BANK2
      Params:         0       0       0       0
      Locals:         0       0      14       0
      Temps:          0       1       0       0
      Totals:         0       1      14       0
Total ram usage:       15 bytes
 Hardware stack levels used:    1
 Hardware stack levels required when called:    6
 This function calls:
		_CellToInd
		_INIT
		_RX
		_ReadCell
		_ShowError
		_TX
		_WriteArrayToEEPROM
		_calc_crc
		_clrInd
		_refreshInd
		_setPoint
		_waitInterrupt
 This function is called by:
		_main
 This function uses a non-reentrant model


 *************** function _setPoint *****************
 Defined at:
		line 108 in file "prog.c"
 Parameters:    Size  Location     Type
  dignum          1    wreg     unsigned char 
  value           1   13[BANK0 ] unsigned char 
 Auto vars:     Size  Location     Type
  dignum          1   14[BANK0 ] unsigned char 
 Return value:  Size  Location     Type
                  1    wreg      void 
 Registers used:
		wreg, fsr0l, fsr0h, status,2, status,0
 Tracked objects:
		On entry : 
		On exit  : 
		Unchanged: 
 Data sizes:     COMMON   BANK0   BANK1   BANK2
      Params:         0       1       0       0
      Locals:         0       1       0       0
      Temps:          0       0       0       0
      Totals:         0       2       0       0
Total ram usage:        2 bytes
 Hardware stack levels used:    1
 Hardware stack levels required when called:    3
 This function calls:
		Nothing
 This function is called by:
		_indData
		_EditAddressMemory
		_main
 This function uses a non-reentrant model


 *************** function _calc_crc *****************
 Defined at:
		line 279 in file "prog.c"
 Parameters:    Size  Location     Type
  mas             1    wreg     PTR unsigned char 
		 -> EditAddressMemory@CellsData(8), DS_ReadData(9), 
  len             1   13[BANK0 ] unsigned char 
 Auto vars:     Size  Location     Type
  mas             1   16[BANK0 ] PTR unsigned char 
		 -> EditAddressMemory@CellsData(8), DS_ReadData(9), 
  fb              1   15[BANK0 ] unsigned char 
  i               1   17[BANK0 ] unsigned char 
  dat             1   14[BANK0 ] unsigned char 
  crc             1   18[BANK0 ] unsigned char 
 Return value:  Size  Location     Type
                  1    wreg      unsigned char 
 Registers used:
		wreg, fsr0l, fsr0h, status,2, status,0
 Tracked objects:
		On entry : 
		On exit  : 
		Unchanged: 
 Data sizes:     COMMON   BANK0   BANK1   BANK2
      Params:         0       1       0       0
      Locals:         0       5       0       0
      Temps:          0       0       0       0
      Totals:         0       6       0       0
Total ram usage:        6 bytes
 Hardware stack levels used:    1
 Hardware stack levels required when called:    3
 This function calls:
		Nothing
 This function is called by:
		_EditAddressMemory
 This function uses a non-reentrant model


 *************** function _WriteArrayToEEPROM *****************
 Defined at:
		line 211 in file "prog.c"
 Parameters:    Size  Location     Type
  container       1    wreg     PTR unsigned char 
		 -> EditAddressMemory@CellsData(8), 
  address_star    1   16[BANK0 ] unsigned char 
  quantity        1   17[BANK0 ] unsigned char 
 Auto vars:     Size  Location     Type
  container       1   19[BANK0 ] PTR unsigned char 
		 -> EditAddressMemory@CellsData(8), 
  i               1   20[BANK0 ] unsigned char 
 Return value:  Size  Location     Type
                  1    wreg      void 
 Registers used:
		wreg, fsr0l, fsr0h, status,2, status,0, pclath, cstack
 Tracked objects:
		On entry : 
		On exit  : 
		Unchanged: 
 Data sizes:     COMMON   BANK0   BANK1   BANK2
      Params:         0       2       0       0
      Locals:         0       2       0       0
      Temps:          0       1       0       0
      Totals:         0       5       0       0
Total ram usage:        5 bytes
 Hardware stack levels used:    1
 Hardware stack levels required when called:    4
 This function calls:
		_EEWR
		_waitInterrupt
 This function is called by:
		_EditAddressMemory
 This function uses a non-reentrant model


 *************** function _waitInterrupt *****************
 Defined at:
		line 91 in file "prog.c"
 Parameters:    Size  Location     Type
		None
 Auto vars:     Size  Location     Type
		None
 Return value:  Size  Location     Type
                  1    wreg      void 
 Registers used:
		None
 Tracked objects:
		On entry : 
		On exit  : 
		Unchanged: 
 Data sizes:     COMMON   BANK0   BANK1   BANK2
      Params:         0       0       0       0
      Locals:         0       0       0       0
      Temps:          0       0       0       0
      Totals:         0       0       0       0
Total ram usage:        0 bytes
 Hardware stack levels used:    1
 Hardware stack levels required when called:    3
 This function calls:
		Nothing
 This function is called by:
		_WriteArrayToEEPROM
		_FindCell
		_EditAddressMemory
		_main
 This function uses a non-reentrant model


 *************** function _EEWR *****************
 Defined at:
		line 179 in file "prog.c"
 Parameters:    Size  Location     Type
  address         1    wreg     unsigned char 
  data            1   13[BANK0 ] unsigned char 
 Auto vars:     Size  Location     Type
  address         1   14[BANK0 ] unsigned char 
  INTCON_BUP      1   15[BANK0 ] volatile unsigned char 
 Return value:  Size  Location     Type
                  1    wreg      void 
 Registers used:
		wreg
 Tracked objects:
		On entry : 
		On exit  : 
		Unchanged: 
 Data sizes:     COMMON   BANK0   BANK1   BANK2
      Params:         0       1       0       0
      Locals:         0       2       0       0
      Temps:          0       0       0       0
      Totals:         0       3       0       0
Total ram usage:        3 bytes
 Hardware stack levels used:    1
 Hardware stack levels required when called:    3
 This function calls:
		Nothing
 This function is called by:
		_WriteArrayToEEPROM
 This function uses a non-reentrant model


 *************** function _TX *****************
 Defined at:
		line 237 in file "prog.c"
 Parameters:    Size  Location     Type
  cmd             1    wreg     unsigned char 
  line            1   13[BANK0 ] unsigned char 
 Auto vars:     Size  Location     Type
  cmd             1   15[BANK0 ] unsigned char 
  One             1   19[BANK0 ] unsigned char 
  i               1   18[BANK0 ] unsigned char 
  Zero            1   17[BANK0 ] unsigned char 
  temp            1   16[BANK0 ] unsigned char 
 Return value:  Size  Location     Type
                  1    wreg      void 
 Registers used:
		wreg, status,2, status,0
 Tracked objects:
		On entry : 
		On exit  : 
		Unchanged: 
 Data sizes:     COMMON   BANK0   BANK1   BANK2
      Params:         0       1       0       0
      Locals:         0       5       0       0
      Temps:          0       1       0       0
      Totals:         0       7       0       0
Total ram usage:        7 bytes
 Hardware stack levels used:    1
 Hardware stack levels required when called:    3
 This function calls:
		Nothing
 This function is called by:
		_EditAddressMemory
 This function uses a non-reentrant model


 *************** function _ShowError *****************
 Defined at:
		line 124 in file "prog.c"
 Parameters:    Size  Location     Type
		None
 Auto vars:     Size  Location     Type
		None
 Return value:  Size  Location     Type
                  1    wreg      void 
 Registers used:
		wreg, fsr0l, fsr0h, status,2, status,0, pclath, cstack
 Tracked objects:
		On entry : 
		On exit  : 
		Unchanged: 
 Data sizes:     COMMON   BANK0   BANK1   BANK2
      Params:         0       0       0       0
      Locals:         0       0       0       0
      Temps:          0       0       0       0
      Totals:         0       0       0       0
Total ram usage:        0 bytes
 Hardware stack levels used:    1
 Hardware stack levels required when called:    4
 This function calls:
		_clrInd
		_refreshInd
		_setDigit
 This function is called by:
		_EditAddressMemory
		_main
 This function uses a non-reentrant model


 *************** function _ReadCell *****************
 Defined at:
		line 570 in file "prog.c"
 Parameters:    Size  Location     Type
  cell            1    wreg     unsigned char 
  CellsData       1   21[BANK0 ] PTR unsigned char 
		 -> EditAddressMemory@CellsData(8), 
 Auto vars:     Size  Location     Type
  cell            1   23[BANK0 ] unsigned char 
  i               1   24[BANK0 ] unsigned char 
 Return value:  Size  Location     Type
                  1    wreg      unsigned char 
 Registers used:
		wreg, fsr0l, fsr0h, status,2, status,0, pclath, cstack
 Tracked objects:
		On entry : 
		On exit  : 
		Unchanged: 
 Data sizes:     COMMON   BANK0   BANK1   BANK2
      Params:         0       1       0       0
      Locals:         0       2       0       0
      Temps:          0       1       0       0
      Totals:         0       4       0       0
Total ram usage:        4 bytes
 Hardware stack levels used:    1
 Hardware stack levels required when called:    5
 This function calls:
		_FillArrayFromEEPROM
 This function is called by:
		_EditAddressMemory
 This function uses a non-reentrant model


 *************** function _FillArrayFromEEPROM *****************
 Defined at:
		line 205 in file "prog.c"
 Parameters:    Size  Location     Type
  container       1    wreg     PTR unsigned char 
		 -> EditAddressMemory@CellsData(8), FindCell@CellsData(8), DS_Address(8), 
  address_star    1   16[BANK0 ] unsigned char 
  quantity        1   17[BANK0 ] unsigned char 
 Auto vars:     Size  Location     Type
  container       1   19[BANK0 ] PTR unsigned char 
		 -> EditAddressMemory@CellsData(8), FindCell@CellsData(8), DS_Address(8), 
  i               1   20[BANK0 ] unsigned char 
 Return value:  Size  Location     Type
                  1    wreg      void 
 Registers used:
		wreg, fsr0l, fsr0h, status,2, status,0, pclath, cstack
 Tracked objects:
		On entry : 
		On exit  : 
		Unchanged: 
 Data sizes:     COMMON   BANK0   BANK1   BANK2
      Params:         0       2       0       0
      Locals:         0       2       0       0
      Temps:          0       1       0       0
      Totals:         0       5       0       0
Total ram usage:        5 bytes
 Hardware stack levels used:    1
 Hardware stack levels required when called:    4
 This function calls:
		_EERD
 This function is called by:
		_FindCell
		_ReadCell
		_main
 This function uses a non-reentrant model


 *************** function _EERD *****************
 Defined at:
		line 194 in file "prog.c"
 Parameters:    Size  Location     Type
  address         1    wreg     unsigned char 
 Auto vars:     Size  Location     Type
  address         1   13[BANK0 ] unsigned char 
  EEDATA_BUP      1   15[BANK0 ] volatile unsigned char 
  INTCON_BUP      1   14[BANK0 ] volatile unsigned char 
 Return value:  Size  Location     Type
                  1    wreg      unsigned char 
 Registers used:
		wreg
 Tracked objects:
		On entry : 
		On exit  : 
		Unchanged: 
 Data sizes:     COMMON   BANK0   BANK1   BANK2
      Params:         0       0       0       0
      Locals:         0       3       0       0
      Temps:          0       0       0       0
      Totals:         0       3       0       0
Total ram usage:        3 bytes
 Hardware stack levels used:    1
 Hardware stack levels required when called:    3
 This function calls:
		Nothing
 This function is called by:
		_FillArrayFromEEPROM
 This function uses a non-reentrant model


 *************** function _RX *****************
 Defined at:
		line 260 in file "prog.c"
 Parameters:    Size  Location     Type
  line            1    wreg     unsigned char 
 Auto vars:     Size  Location     Type
  line            1   14[BANK0 ] unsigned char 
  i               1   17[BANK0 ] unsigned char 
  One             1   18[BANK0 ] unsigned char 
  d               1   16[BANK0 ] unsigned char 
  Zero            1   15[BANK0 ] unsigned char 
 Return value:  Size  Location     Type
                  1    wreg      unsigned char 
 Registers used:
		wreg, status,2, status,0
 Tracked objects:
		On entry : 
		On exit  : 
		Unchanged: 
 Data sizes:     COMMON   BANK0   BANK1   BANK2
      Params:         0       0       0       0
      Locals:         0       5       0       0
      Temps:          0       1       0       0
      Totals:         0       6       0       0
Total ram usage:        6 bytes
 Hardware stack levels used:    1
 Hardware stack levels required when called:    3
 This function calls:
		Nothing
 This function is called by:
		_EditAddressMemory
 This function uses a non-reentrant model


 *************** function _INIT *****************
 Defined at:
		line 219 in file "prog.c"
 Parameters:    Size  Location     Type
  line            1    wreg     unsigned char 
 Auto vars:     Size  Location     Type
  line            1   14[BANK0 ] unsigned char 
  One             1   17[BANK0 ] unsigned char 
  b               1   16[BANK0 ] unsigned char 
  Zero            1   15[BANK0 ] unsigned char 
 Return value:  Size  Location     Type
                  1    wreg      unsigned char 
 Registers used:
		wreg, status,2, status,0
 Tracked objects:
		On entry : 
		On exit  : 
		Unchanged: 
 Data sizes:     COMMON   BANK0   BANK1   BANK2
      Params:         0       0       0       0
      Locals:         0       4       0       0
      Temps:          0       1       0       0
      Totals:         0       5       0       0
Total ram usage:        5 bytes
 Hardware stack levels used:    1
 Hardware stack levels required when called:    3
 This function calls:
		Nothing
 This function is called by:
		_EditAddressMemory
 This function uses a non-reentrant model


 *************** function _CellToInd *****************
 Defined at:
		line 580 in file "prog.c"
 Parameters:    Size  Location     Type
  cell            1    wreg     unsigned char 
 Auto vars:     Size  Location     Type
  cell            1   22[BANK0 ] unsigned char 
 Return value:  Size  Location     Type
                  1    wreg      void 
 Registers used:
		wreg, fsr0l, fsr0h, status,2, status,0, pclath, cstack
 Tracked objects:
		On entry : 
		On exit  : 
		Unchanged: 
 Data sizes:     COMMON   BANK0   BANK1   BANK2
      Params:         0       0       0       0
      Locals:         0       1       0       0
      Temps:          0       0       0       0
      Totals:         0       1       0       0
Total ram usage:        1 bytes
 Hardware stack levels used:    1
 Hardware stack levels required when called:    4
 This function calls:
		___lbdiv
		___lbmod
		_clrInd
		_refreshInd
		_setDigit
 This function is called by:
		_EditAddressMemory
		_main
 This function uses a non-reentrant model


 *************** function _setDigit *****************
 Defined at:
		line 104 in file "prog.c"
 Parameters:    Size  Location     Type
  a               1    wreg     unsigned char 
  data            1   18[BANK0 ] unsigned char 
 Auto vars:     Size  Location     Type
  a               1   21[BANK0 ] unsigned char 
 Return value:  Size  Location     Type
                  1    wreg      void 
 Registers used:
		wreg, fsr0l, fsr0h, status,2, status,0
 Tracked objects:
		On entry : 
		On exit  : 
		Unchanged: 
 Data sizes:     COMMON   BANK0   BANK1   BANK2
      Params:         0       1       0       0
      Locals:         0       1       0       0
      Temps:          0       2       0       0
      Totals:         0       4       0       0
Total ram usage:        4 bytes
 Hardware stack levels used:    1
 Hardware stack levels required when called:    3
 This function calls:
		Nothing
 This function is called by:
		_ShowError
		_indData
		_CellToInd
		_main
 This function uses a non-reentrant model


 *************** function _refreshInd *****************
 Defined at:
		line 112 in file "prog.c"
 Parameters:    Size  Location     Type
		None
 Auto vars:     Size  Location     Type
		None
 Return value:  Size  Location     Type
                  1    wreg      void 
 Registers used:
		wreg
 Tracked objects:
		On entry : 
		On exit  : 
		Unchanged: 
 Data sizes:     COMMON   BANK0   BANK1   BANK2
      Params:         0       0       0       0
      Locals:         0       0       0       0
      Temps:          0       0       0       0
      Totals:         0       0       0       0
Total ram usage:        0 bytes
 Hardware stack levels used:    1
 Hardware stack levels required when called:    3
 This function calls:
		Nothing
 This function is called by:
		_ShowError
		_CellToInd
		_EditAddressMemory
		_main
 This function uses a non-reentrant model


 *************** function _clrInd *****************
 Defined at:
		line 118 in file "prog.c"
 Parameters:    Size  Location     Type
		None
 Auto vars:     Size  Location     Type
		None
 Return value:  Size  Location     Type
                  1    wreg      void 
 Registers used:
		wreg
 Tracked objects:
		On entry : 
		On exit  : 
		Unchanged: 
 Data sizes:     COMMON   BANK0   BANK1   BANK2
      Params:         0       0       0       0
      Locals:         0       0       0       0
      Temps:          0       0       0       0
      Totals:         0       0       0       0
Total ram usage:        0 bytes
 Hardware stack levels used:    1
 Hardware stack levels required when called:    3
 This function calls:
		Nothing
 This function is called by:
		_ShowError
		_CellToInd
		_EditAddressMemory
		_main
 This function uses a non-reentrant model


 *************** function ___lbmod *****************
 Defined at:
		line 4 in file "C:\Program Files (x86)\Microchip\xc8\v1.38\sources\common\lbmod.c"
 Parameters:    Size  Location     Type
  dividend        1    wreg     unsigned char 
  divisor         1   13[BANK0 ] unsigned char 
 Auto vars:     Size  Location     Type
  dividend        1   15[BANK0 ] unsigned char 
  rem             1   17[BANK0 ] unsigned char 
  counter         1   16[BANK0 ] unsigned char 
 Return value:  Size  Location     Type
                  1    wreg      unsigned char 
 Registers used:
		wreg, status,2, status,0
 Tracked objects:
		On entry : 
		On exit  : 
		Unchanged: 
 Data sizes:     COMMON   BANK0   BANK1   BANK2
      Params:         0       1       0       0
      Locals:         0       3       0       0
      Temps:          0       1       0       0
      Totals:         0       5       0       0
Total ram usage:        5 bytes
 Hardware stack levels used:    1
 Hardware stack levels required when called:    3
 This function calls:
		Nothing
 This function is called by:
		_indData
		_CellToInd
 This function uses a non-reentrant model


 *************** function ___lbdiv *****************
 Defined at:
		line 4 in file "C:\Program Files (x86)\Microchip\xc8\v1.38\sources\common\lbdiv.c"
 Parameters:    Size  Location     Type
  dividend        1    wreg     unsigned char 
  divisor         1   13[BANK0 ] unsigned char 
 Auto vars:     Size  Location     Type
  dividend        1   14[BANK0 ] unsigned char 
  quotient        1   16[BANK0 ] unsigned char 
  counter         1   15[BANK0 ] unsigned char 
 Return value:  Size  Location     Type
                  1    wreg      unsigned char 
 Registers used:
		wreg, status,2, status,0
 Tracked objects:
		On entry : 
		On exit  : 
		Unchanged: 
 Data sizes:     COMMON   BANK0   BANK1   BANK2
      Params:         0       1       0       0
      Locals:         0       3       0       0
      Temps:          0       0       0       0
      Totals:         0       4       0       0
Total ram usage:        4 bytes
 Hardware stack levels used:    1
 Hardware stack levels required when called:    3
 This function calls:
		Nothing
 This function is called by:
		_indData
		_CellToInd
 This function uses a non-reentrant model


 *************** function _F *****************
 Defined at:
		line 428 in file "prog.c"
 Parameters:    Size  Location     Type
		None
 Auto vars:     Size  Location     Type
  CurrentKeysS    1   12[BANK0 ] unsigned char 
  dig             1   11[BANK0 ] unsigned char 
 Return value:  Size  Location     Type
                  1    wreg      void 
 Registers used:
		wreg, fsr0l, fsr0h, status,2, status,0, pclath, cstack
 Tracked objects:
		On entry : 
		On exit  : 
		Unchanged: 
 Data sizes:     COMMON   BANK0   BANK1   BANK2
      Params:         0       0       0       0
      Locals:         0       2       0       0
      Temps:          0       5       0       0
      Totals:         0       7       0       0
Total ram usage:        7 bytes
 Hardware stack levels used:    1
 Hardware stack levels required when called:    2
 This function calls:
		_convDig
		_get_temp_Async
 This function is called by:
		Interrupt level 1
 This function uses a non-reentrant model


 *************** function _get_temp_Async *****************
 Defined at:
		line 294 in file "prog.c"
 Parameters:    Size  Location     Type
		None
 Auto vars:     Size  Location     Type
  temp2           1    4[BANK0 ] unsigned char 
  temp1           1    3[BANK0 ] unsigned char 
  i               1    2[BANK0 ] unsigned char 
  line            1    5[BANK0 ] unsigned char 
 Return value:  Size  Location     Type
                  1    wreg      void 
 Registers used:
		wreg, fsr0l, fsr0h, status,2, status,0, pclath, cstack
 Tracked objects:
		On entry : 
		On exit  : 
		Unchanged: 
 Data sizes:     COMMON   BANK0   BANK1   BANK2
      Params:         0       0       0       0
      Locals:         0       4       0       0
      Temps:          0       2       0       0
      Totals:         0       6       0       0
Total ram usage:        6 bytes
 Hardware stack levels used:    1
 Hardware stack levels required when called:    1
 This function calls:
		___awdiv
		___wmul
		i1_INIT
		i1_RX
		i1_TX
		i1_calc_crc
 This function is called by:
		_F
 This function uses a non-reentrant model


 *************** function i1_calc_crc *****************
 Defined at:
		line 279 in file "prog.c"
 Parameters:    Size  Location     Type
  mas             1    wreg     PTR unsigned char 
		 -> EditAddressMemory@CellsData(8), DS_ReadData(9), 
  len             1    0[COMMON] unsigned char 
 Auto vars:     Size  Location     Type
  mas             1    1[COMMON] PTR unsigned char 
		 -> EditAddressMemory@CellsData(8), DS_ReadData(9), 
  calc_crc        1    5[COMMON] unsigned char 
  calc_crc        1    4[COMMON] unsigned char 
  calc_crc        1    3[COMMON] unsigned char 
  calc_crc        1    2[COMMON] unsigned char 
 Return value:  Size  Location     Type
                  1    wreg      unsigned char 
 Registers used:
		wreg, fsr0l, fsr0h, status,2, status,0
 Tracked objects:
		On entry : 
		On exit  : 
		Unchanged: 
 Data sizes:     COMMON   BANK0   BANK1   BANK2
      Params:         1       0       0       0
      Locals:         5       0       0       0
      Temps:          0       0       0       0
      Totals:         6       0       0       0
Total ram usage:        6 bytes
 Hardware stack levels used:    1
 This function calls:
		Nothing
 This function is called by:
		_get_temp_Async
 This function uses a non-reentrant model


 *************** function i1_TX *****************
 Defined at:
		line 237 in file "prog.c"
 Parameters:    Size  Location     Type
  cmd             1    wreg     unsigned char 
  line            1    0[COMMON] unsigned char 
 Auto vars:     Size  Location     Type
  cmd             1    2[COMMON] unsigned char 
  TX              1    6[COMMON] unsigned char 
  TX              1    5[COMMON] unsigned char 
  TX              1    4[COMMON] unsigned char 
  TX              1    3[COMMON] unsigned char 
 Return value:  Size  Location     Type
                  1    wreg      void 
 Registers used:
		wreg, status,2, status,0
 Tracked objects:
		On entry : 
		On exit  : 
		Unchanged: 
 Data sizes:     COMMON   BANK0   BANK1   BANK2
      Params:         1       0       0       0
      Locals:         5       0       0       0
      Temps:          1       0       0       0
      Totals:         7       0       0       0
Total ram usage:        7 bytes
 Hardware stack levels used:    1
 This function calls:
		Nothing
 This function is called by:
		_get_temp_Async
 This function uses a non-reentrant model


 *************** function i1_RX *****************
 Defined at:
		line 260 in file "prog.c"
 Parameters:    Size  Location     Type
  line            1    wreg     unsigned char 
 Auto vars:     Size  Location     Type
  line            1    1[COMMON] unsigned char 
  RX              1    5[COMMON] unsigned char 
  RX              1    4[COMMON] unsigned char 
  RX              1    3[COMMON] unsigned char 
  RX              1    2[COMMON] unsigned char 
 Return value:  Size  Location     Type
                  1    wreg      unsigned char 
 Registers used:
		wreg, status,2, status,0
 Tracked objects:
		On entry : 
		On exit  : 
		Unchanged: 
 Data sizes:     COMMON   BANK0   BANK1   BANK2
      Params:         0       0       0       0
      Locals:         5       0       0       0
      Temps:          1       0       0       0
      Totals:         6       0       0       0
Total ram usage:        6 bytes
 Hardware stack levels used:    1
 This function calls:
		Nothing
 This function is called by:
		_get_temp_Async
 This function uses a non-reentrant model


 *************** function i1_INIT *****************
 Defined at:
		line 219 in file "prog.c"
 Parameters:    Size  Location     Type
  line            1    wreg     unsigned char 
 Auto vars:     Size  Location     Type
  line            1    1[COMMON] unsigned char 
  INIT            1    4[COMMON] unsigned char 
  INIT            1    3[COMMON] unsigned char 
  INIT            1    2[COMMON] unsigned char 
 Return value:  Size  Location     Type
                  1    wreg      unsigned char 
 Registers used:
		wreg, status,2, status,0
 Tracked objects:
		On entry : 
		On exit  : 
		Unchanged: 
 Data sizes:     COMMON   BANK0   BANK1   BANK2
      Params:         0       0       0       0
      Locals:         4       0       0       0
      Temps:          1       0       0       0
      Totals:         5       0       0       0
Total ram usage:        5 bytes
 Hardware stack levels used:    1
 This function calls:
		Nothing
 This function is called by:
		_get_temp_Async
 This function uses a non-reentrant model


 *************** function ___wmul *****************
 Defined at:
		line 15 in file "C:\Program Files (x86)\Microchip\xc8\v1.38\sources\common\Umul16.c"
 Parameters:    Size  Location     Type
  multiplier      2    0[COMMON] unsigned int 
  multiplicand    2    2[COMMON] unsigned int 
 Auto vars:     Size  Location     Type
  product         2    4[COMMON] unsigned int 
 Return value:  Size  Location     Type
                  2    0[COMMON] unsigned int 
 Registers used:
		wreg, status,2, status,0
 Tracked objects:
		On entry : 
		On exit  : 
		Unchanged: 
 Data sizes:     COMMON   BANK0   BANK1   BANK2
      Params:         4       0       0       0
      Locals:         2       0       0       0
      Temps:          0       0       0       0
      Totals:         6       0       0       0
Total ram usage:        6 bytes
 Hardware stack levels used:    1
 This function calls:
		Nothing
 This function is called by:
		_get_temp_Async
 This function uses a non-reentrant model


 *************** function ___awdiv *****************
 Defined at:
		line 6 in file "C:\Program Files (x86)\Microchip\xc8\v1.38\sources\common\awdiv.c"
 Parameters:    Size  Location     Type
  divisor         2    6[COMMON] int 
  dividend        2    8[COMMON] int 
 Auto vars:     Size  Location     Type
  quotient        2   12[COMMON] int 
  sign            1   11[COMMON] unsigned char 
  counter         1   10[COMMON] unsigned char 
 Return value:  Size  Location     Type
                  2    6[COMMON] int 
 Registers used:
		wreg, status,2, status,0
 Tracked objects:
		On entry : 
		On exit  : 
		Unchanged: 
 Data sizes:     COMMON   BANK0   BANK1   BANK2
      Params:         4       0       0       0
      Locals:         4       0       0       0
      Temps:          0       0       0       0
      Totals:         8       0       0       0
Total ram usage:        8 bytes
 Hardware stack levels used:    1
 This function calls:
		Nothing
 This function is called by:
		_get_temp_Async
 This function uses a non-reentrant model


 *************** function _convDig *****************
 Defined at:
		line 132 in file "prog.c"
 Parameters:    Size  Location     Type
  dig             1    wreg     unsigned char 
 Auto vars:     Size  Location     Type
  dig             1    0[COMMON] unsigned char 
 Return value:  Size  Location     Type
                  1    wreg      unsigned char 
 Registers used:
		wreg, fsr0l, fsr0h, status,2, status,0
 Tracked objects:
		On entry : 
		On exit  : 
		Unchanged: 
 Data sizes:     COMMON   BANK0   BANK1   BANK2
      Params:         0       0       0       0
      Locals:         1       0       0       0
      Temps:          0       0       0       0
      Totals:         1       0       0       0
Total ram usage:        1 bytes
 Hardware stack levels used:    1
 This function calls:
		Nothing
 This function is called by:
		_F
 This function uses a non-reentrant model



MODULE INFORMATION

Module		Function		Class		Link	Load	Size
C:\Program Files (x86)\Microchip\xc8\v1.38\sources\common\Umul16.c
		___wmul        		CODE           	06BC	0000	26

C:\Program Files (x86)\Microchip\xc8\v1.38\sources\common\Umul16.c estimated size: 26

C:\Program Files (x86)\Microchip\xc8\v1.38\sources\common\awdiv.c
		___awdiv       		CODE           	046B	0000	70

C:\Program Files (x86)\Microchip\xc8\v1.38\sources\common\awdiv.c estimated size: 70

C:\Program Files (x86)\Microchip\xc8\v1.38\sources\common\lbmod.c
		___lbmod       		CODE           	064E	0000	29

C:\Program Files (x86)\Microchip\xc8\v1.38\sources\common\lbmod.c estimated size: 29

shared
		PL12           		CODE           	0516	0000	7
		PL8            		CODE           	0156	0000	8
		PL14           		CODE           	0573	0000	6
		__stringtab    		STRING         	0775	0000	7
		PL16           		CODE           	0578	0000	6
		i1_calc_crc    		CODE           	05CE	0000	35
		__initialization		CODE           	0011	0000	27
		_PortAData     		STRING         	077B	0000	4
		i1_RX          		CODE           	05A7	0000	40
		i1_TX          		CODE           	054D	0000	39
		PL2            		CODE           	013C	0000	16
		PL10           		CODE           	0257	0000	9
		PL4            		CODE           	014B	0000	12
		PL6            		CODE           	024F	0000	9
		i1_INIT        		CODE           	051C	0000	50

shared estimated size: 275

prog.c
		_indData       		CODE           	03C8	0000	95
		_setDigit      		CODE           	0726	0000	19
		_convDig       		CODE           	066A	0000	29
		_EEWR          		CODE           	06D5	0000	25
		_Reset_powerOnInterval		CODE           	078E	0000	7
		_refreshInd    		CODE           	0786	0000	9
		_calc_crc      		CODE           	05F0	0000	34
		_setPoint      		CODE           	0749	0000	16
		_waitInterrupt 		CODE           	079A	0000	6
		_main          		CODE           	002D	0000	272
		_EditAddressMemory		CODE           	025F	0000	191
		_ReadCell      		CODE           	0632	0000	29
		_get_temp_Async		CODE           	015D	0000	243
		_WriteArrayToEEPROM		CODE           	0701	0000	20
		_FillArrayFromEEPROM		CODE           	0738	0000	18
		_Run_getTemp   		CODE           	06ED	0000	21
		_Run_getInit   		CODE           	0714	0000	19
		_EERD          		CODE           	0758	0000	16
		_ShowError     		CODE           	0767	0000	15
		_CellToInd     		CODE           	0686	0000	28
		_F             		CODE           	031D	0000	172
		_RX            		CODE           	057D	0000	43
		_TX            		CODE           	04E8	0000	47
		_INIT          		CODE           	04B0	0000	57
		_clrInd        		CODE           	0794	0000	7
		_FindCell      		CODE           	0426	0000	70

prog.c estimated size: 1508

C:\Program Files (x86)\Microchip\xc8\v1.38\sources\common\lbdiv.c
		___lbdiv       		CODE           	06A1	0000	28

C:\Program Files (x86)\Microchip\xc8\v1.38\sources\common\lbdiv.c estimated size: 28

